; Function Attrs: null_pointer_is_valid sspstrong uwtable
define hidden void @Mate_push_buffer_state(ptr noundef %0, ptr noundef captures(none) %1) local_unnamed_addr #0 {
  %3 = icmp eq ptr %0, null
  br i1 %3, label %57, label %4

4:                                                ; preds = %2
  tail call fastcc void @Mate_ensure_buffer_stack(ptr noundef %1)
  %5 = getelementptr inbounds nuw i8, ptr %1, i64 40
  %6 = load ptr, ptr %5, align 8
  %.not = icmp eq ptr %6, null
  br i1 %.not, label %.thread, label %7

7:                                                ; preds = %4
  %8 = getelementptr inbounds nuw i8, ptr %1, i64 24
  %9 = load i64, ptr %8, align 8
  %10 = getelementptr ptr, ptr %6, i64 %9
  %11 = load ptr, ptr %10, align 8
  %.not25 = icmp eq ptr %11, null
  br i1 %.not25, label %.thread30, label %12

12:                                               ; preds = %7
  %13 = getelementptr inbounds nuw i8, ptr %1, i64 48
  %14 = load i8, ptr %13, align 8
  %15 = getelementptr inbounds nuw i8, ptr %1, i64 64
  %16 = load ptr, ptr %15, align 8
  store i8 %14, ptr %16, align 1
  %17 = load ptr, ptr %15, align 8
  %18 = load ptr, ptr %5, align 8
  %19 = load i64, ptr %8, align 8
  %20 = getelementptr ptr, ptr %18, i64 %19
  %21 = load ptr, ptr %20, align 8
  %22 = getelementptr inbounds nuw i8, ptr %21, i64 16
  store ptr %17, ptr %22, align 8
  %23 = getelementptr inbounds nuw i8, ptr %1, i64 52
  %24 = load i32, ptr %23, align 4
  %25 = load ptr, ptr %5, align 8
  %26 = load i64, ptr %8, align 8
  %27 = getelementptr ptr, ptr %25, i64 %26
  %28 = load ptr, ptr %27, align 8
  %29 = getelementptr inbounds nuw i8, ptr %28, i64 28
  store i32 %24, ptr %29, align 4
  %.pr.pre = load ptr, ptr %5, align 8
  %.not26 = icmp eq ptr %.pr.pre, null
  br i1 %.not26, label %.thread, label %.thread30

.thread30:                                        ; preds = %7, %12
  %.pr33 = phi ptr [ %.pr.pre, %12 ], [ %6, %7 ]
  %30 = load i64, ptr %8, align 8
  %31 = getelementptr ptr, ptr %.pr33, i64 %30
  %32 = load ptr, ptr %31, align 8
  %.not27 = icmp eq ptr %32, null
  br i1 %.not27, label %.thread, label %33

33:                                               ; preds = %.thread30
  %34 = add i64 %30, 1
  store i64 %34, ptr %8, align 8
  br label %.thread

.thread:                                          ; preds = %4, %12, %33, %.thread30
  %35 = phi ptr [ null, %12 ], [ %.pr33, %33 ], [ %.pr33, %.thread30 ], [ null, %4 ]
  %36 = getelementptr inbounds nuw i8, ptr %1, i64 24
  %37 = load i64, ptr %36, align 8
  %38 = getelementptr ptr, ptr %35, i64 %37
  store ptr %0, ptr %38, align 8
  %39 = load ptr, ptr %5, align 8
  %40 = load i64, ptr %36, align 8
  %41 = getelementptr ptr, ptr %39, i64 %40
  %42 = load ptr, ptr %41, align 8
  %43 = getelementptr inbounds nuw i8, ptr %42, i64 28
  %44 = load i32, ptr %43, align 4
  %45 = getelementptr inbounds nuw i8, ptr %1, i64 52
  store i32 %44, ptr %45, align 4
  %46 = load ptr, ptr %41, align 8
  %47 = getelementptr inbounds nuw i8, ptr %46, i64 16
  %48 = load ptr, ptr %47, align 8
  %49 = getelementptr inbounds nuw i8, ptr %1, i64 64
  store ptr %48, ptr %49, align 8
  %50 = getelementptr inbounds nuw i8, ptr %1, i64 128
  store ptr %48, ptr %50, align 8
  %51 = load ptr, ptr %41, align 8
  %52 = load ptr, ptr %51, align 8
  %53 = getelementptr inbounds nuw i8, ptr %1, i64 8
  store ptr %52, ptr %53, align 8
  %54 = load i8, ptr %48, align 1
  %55 = getelementptr inbounds nuw i8, ptr %1, i64 48
  store i8 %54, ptr %55, align 8
  %56 = getelementptr inbounds nuw i8, ptr %1, i64 80
  store i32 1, ptr %56, align 8
  br label %57

57:                                               ; preds = %2, %.thread
  ret void
}